target datalayout = "e-m:e-p270:32:32-p271:32:32-p272:64:64-i64:64-i128:128-f80:128-n8:16:32:64-S128"
target triple = "x86_64-pc-linux-gnu"

%"class.icu_77::UObject" = type { ptr }
%"class.icu_77::StringTrieBuilder::Node" = type { %"class.icu_77::UObject", i32, i32 }
%"class.icu_77::StringTrieBuilder::ListBranchNode" = type <{ %"class.icu_77::StringTrieBuilder::BranchNode.base", [4 x i8], [5 x ptr], i32, [5 x i32], [5 x i16], [6 x i8] }>
%"class.icu_77::StringTrieBuilder::BranchNode.base" = type <{ %"class.icu_77::StringTrieBuilder::Node", i32 }>
%"class.icu_77::StringTrieBuilder::BranchNode" = type <{ %"class.icu_77::StringTrieBuilder::Node", i32, [4 x i8] }>

; Function Attrs: inlinehint mustprogress uwtable
define linkonce_odr void @_ZN6icu_7717StringTrieBuilder4Node26writeUnlessInsideRightEdgeEiiRS0_(ptr noundef nonnull align 8 dereferenceable(16) %0, i32 noundef %1, i32 noundef %2, ptr noundef nonnull align 8 dereferenceable(16) %3) #8 comdat align 2 {
  %5 = alloca ptr, align 8
  %6 = alloca i32, align 4
  %7 = alloca i32, align 4
  %8 = alloca ptr, align 8
  store ptr %0, ptr %5, align 8, !tbaa !24
  store i32 %1, ptr %6, align 4, !tbaa !16
  store i32 %2, ptr %7, align 4, !tbaa !16
  store ptr %3, ptr %8, align 8, !tbaa !3
  %9 = load ptr, ptr %5, align 8
  %10 = getelementptr inbounds nuw %"class.icu_77::StringTrieBuilder::Node", ptr %9, i32 0, i32 2
  %11 = load i32, ptr %10, align 4, !tbaa !77
  %12 = icmp slt i32 %11, 0
  br i1 %12, label %13, label %28

13:                                               ; preds = %4
  %14 = getelementptr inbounds nuw %"class.icu_77::StringTrieBuilder::Node", ptr %9, i32 0, i32 2
  %15 = load i32, ptr %14, align 4, !tbaa !77
  %16 = load i32, ptr %7, align 4, !tbaa !16
  %17 = icmp slt i32 %15, %16
  br i1 %17, label %23, label %18

18:                                               ; preds = %13
  %19 = load i32, ptr %6, align 4, !tbaa !16
  %20 = getelementptr inbounds nuw %"class.icu_77::StringTrieBuilder::Node", ptr %9, i32 0, i32 2
  %21 = load i32, ptr %20, align 4, !tbaa !77
  %22 = icmp slt i32 %19, %21
  br i1 %22, label %23, label %28

23:                                               ; preds = %18, %13
  %24 = load ptr, ptr %8, align 8, !tbaa !3
  %25 = load ptr, ptr %9, align 8, !tbaa !8
  %26 = getelementptr inbounds ptr, ptr %25, i64 5
  %27 = load ptr, ptr %26, align 8
  call void %27(ptr noundef nonnull align 8 dereferenceable(16) %9, ptr noundef nonnull align 8 dereferenceable(16) %24)
  br label %28

28:                                               ; preds = %23, %18, %4
  ret void
}

; Function Attrs: inlinehint mustprogress nounwind uwtable
define linkonce_odr noundef i32 @_ZNK6icu_7717StringTrieBuilder4Node9getOffsetEv(ptr noundef nonnull align 8 dereferenceable(16) %0) #1 comdat align 2 {
  %2 = alloca ptr, align 8
  store ptr %0, ptr %2, align 8, !tbaa !24
  %3 = load ptr, ptr %2, align 8
  %4 = getelementptr inbounds nuw %"class.icu_77::StringTrieBuilder::Node", ptr %3, i32 0, i32 2
  %5 = load i32, ptr %4, align 4, !tbaa !77
  ret i32 %5
}

; Function Attrs: mustprogress uwtable
define void @_ZN6icu_7717StringTrieBuilder14ListBranchNode5writeERS0_(ptr noundef nonnull align 8 dereferenceable(98) %0, ptr noundef nonnull align 8 dereferenceable(16) %1) unnamed_addr #2 align 2 {
  %3 = alloca ptr, align 8
  %4 = alloca ptr, align 8
  %5 = alloca i32, align 4
  %6 = alloca ptr, align 8
  %7 = alloca i32, align 4
  %8 = alloca i32, align 4
  %9 = alloca i8, align 1
  store ptr %0, ptr %3, align 8, !tbaa !39
  store ptr %1, ptr %4, align 8, !tbaa !3
  %10 = load ptr, ptr %3, align 8
  call void @llvm.lifetime.start.p0(i64 4, ptr %5) #9
  %11 = getelementptr inbounds nuw %"class.icu_77::StringTrieBuilder::ListBranchNode", ptr %10, i32 0, i32 3
  %12 = load i32, ptr %11, align 8, !tbaa !59
  %13 = sub nsw i32 %12, 1
  store i32 %13, ptr %5, align 4, !tbaa !16
  call void @llvm.lifetime.start.p0(i64 8, ptr %6) #9
  %14 = getelementptr inbounds nuw %"class.icu_77::StringTrieBuilder::ListBranchNode", ptr %10, i32 0, i32 2
  %15 = load i32, ptr %5, align 4, !tbaa !16
  %16 = sext i32 %15 to i64
  %17 = getelementptr inbounds [5 x ptr], ptr %14, i64 0, i64 %16
  %18 = load ptr, ptr %17, align 8, !tbaa !24
  store ptr %18, ptr %6, align 8, !tbaa !24
  call void @llvm.lifetime.start.p0(i64 4, ptr %7) #9
  %19 = load ptr, ptr %6, align 8, !tbaa !24
  %20 = icmp eq ptr %19, null
  br i1 %20, label %21, label %24

21:                                               ; preds = %2
  %22 = getelementptr inbounds nuw %"class.icu_77::StringTrieBuilder::BranchNode", ptr %10, i32 0, i32 1
  %23 = load i32, ptr %22, align 8, !tbaa !84
  br label %27

24:                                               ; preds = %2
  %25 = load ptr, ptr %6, align 8, !tbaa !24
  %26 = call noundef i32 @_ZNK6icu_7717StringTrieBuilder4Node9getOffsetEv(ptr noundef nonnull align 8 dereferenceable(16) %25)
  br label %27

27:                                               ; preds = %24, %21
  %28 = phi i32 [ %23, %21 ], [ %26, %24 ]
  store i32 %28, ptr %7, align 4, !tbaa !16
  br label %29

29:                                               ; preds = %49, %27
  %30 = load i32, ptr %5, align 4, !tbaa !16
  %31 = add nsw i32 %30, -1
  store i32 %31, ptr %5, align 4, !tbaa !16
  %32 = getelementptr inbounds nuw %"class.icu_77::StringTrieBuilder::ListBranchNode", ptr %10, i32 0, i32 2
  %33 = load i32, ptr %5, align 4, !tbaa !16
  %34 = sext i32 %33 to i64
  %35 = getelementptr inbounds [5 x ptr], ptr %32, i64 0, i64 %34
  %36 = load ptr, ptr %35, align 8, !tbaa !24
  %37 = icmp ne ptr %36, null
  br i1 %37, label %38, label %48

38:                                               ; preds = %29
  %39 = getelementptr inbounds nuw %"class.icu_77::StringTrieBuilder::ListBranchNode", ptr %10, i32 0, i32 2
  %40 = load i32, ptr %5, align 4, !tbaa !16
  %41 = sext i32 %40 to i64
  %42 = getelementptr inbounds [5 x ptr], ptr %39, i64 0, i64 %41
  %43 = load ptr, ptr %42, align 8, !tbaa !24
  %44 = getelementptr inbounds nuw %"class.icu_77::StringTrieBuilder::BranchNode", ptr %10, i32 0, i32 1
  %45 = load i32, ptr %44, align 8, !tbaa !84
  %46 = load i32, ptr %7, align 4, !tbaa !16
  %47 = load ptr, ptr %4, align 8, !tbaa !3
  call void @_ZN6icu_7717StringTrieBuilder4Node26writeUnlessInsideRightEdgeEiiRS0_(ptr noundef nonnull align 8 dereferenceable(16) %43, i32 noundef %45, i32 noundef %46, ptr noundef nonnull align 8 dereferenceable(16) %47)
  br label %48

48:                                               ; preds = %38, %29
  br label %49

49:                                               ; preds = %48
  %50 = load i32, ptr %5, align 4, !tbaa !16
  %51 = icmp sgt i32 %50, 0
  br i1 %51, label %29, label %52, !llvm.loop !86

52:                                               ; preds = %49
  %53 = getelementptr inbounds nuw %"class.icu_77::StringTrieBuilder::ListBranchNode", ptr %10, i32 0, i32 3
  %54 = load i32, ptr %53, align 8, !tbaa !59
  %55 = sub nsw i32 %54, 1
  store i32 %55, ptr %5, align 4, !tbaa !16
  %56 = load ptr, ptr %6, align 8, !tbaa !24
  %57 = icmp eq ptr %56, null
  br i1 %57, label %58, label %69

58:                                               ; preds = %52
  %59 = load ptr, ptr %4, align 8, !tbaa !3
  %60 = getelementptr inbounds nuw %"class.icu_77::StringTrieBuilder::ListBranchNode", ptr %10, i32 0, i32 4
  %61 = load i32, ptr %5, align 4, !tbaa !16
  %62 = sext i32 %61 to i64
  %63 = getelementptr inbounds [5 x i32], ptr %60, i64 0, i64 %62
  %64 = load i32, ptr %63, align 4, !tbaa !16
  %65 = load ptr, ptr %59, align 8, !tbaa !8
  %66 = getelementptr inbounds ptr, ptr %65, i64 17
  %67 = load ptr, ptr %66, align 8
  %68 = call noundef i32 %67(ptr noundef nonnull align 8 dereferenceable(16) %59, i32 noundef %64, i8 noundef signext 1)
  br label %75

69:                                               ; preds = %52
  %70 = load ptr, ptr %6, align 8, !tbaa !24
  %71 = load ptr, ptr %4, align 8, !tbaa !3
  %72 = load ptr, ptr %70, align 8, !tbaa !8
  %73 = getelementptr inbounds ptr, ptr %72, i64 5
  %74 = load ptr, ptr %73, align 8
  call void %74(ptr noundef nonnull align 8 dereferenceable(16) %70, ptr noundef nonnull align 8 dereferenceable(16) %71)
  br label %75

75:                                               ; preds = %69, %58
  %76 = load ptr, ptr %4, align 8, !tbaa !3
  %77 = getelementptr inbounds nuw %"class.icu_77::StringTrieBuilder::ListBranchNode", ptr %10, i32 0, i32 5
  %78 = load i32, ptr %5, align 4, !tbaa !16
  %79 = sext i32 %78 to i64
  %80 = getelementptr inbounds [5 x i16], ptr %77, i64 0, i64 %79
  %81 = load i16, ptr %80, align 2, !tbaa !29
  %82 = zext i16 %81 to i32
  %83 = load ptr, ptr %76, align 8, !tbaa !8
  %84 = getelementptr inbounds ptr, ptr %83, i64 15
  %85 = load ptr, ptr %84, align 8
  %86 = call noundef i32 %85(ptr noundef nonnull align 8 dereferenceable(16) %76, i32 noundef %82)
  %87 = getelementptr inbounds nuw %"class.icu_77::StringTrieBuilder::Node", ptr %10, i32 0, i32 2
  store i32 %86, ptr %87, align 4, !tbaa !77
  br label %88

88:                                               ; preds = %115, %75
  %89 = load i32, ptr %5, align 4, !tbaa !16
  %90 = add nsw i32 %89, -1
  store i32 %90, ptr %5, align 4, !tbaa !16
  %91 = icmp sge i32 %90, 0
  br i1 %91, label %92, label %135

92:                                               ; preds = %88
  call void @llvm.lifetime.start.p0(i64 4, ptr %8) #9
  call void @llvm.lifetime.start.p0(i64 1, ptr %9) #9
  %93 = getelementptr inbounds nuw %"class.icu_77::StringTrieBuilder::ListBranchNode", ptr %10, i32 0, i32 2
  %94 = load i32, ptr %5, align 4, !tbaa !16
  %95 = sext i32 %94 to i64
  %96 = getelementptr inbounds [5 x ptr], ptr %93, i64 0, i64 %95
  %97 = load ptr, ptr %96, align 8, !tbaa !24
  %98 = icmp eq ptr %97, null
  br i1 %98, label %99, label %105

99:                                               ; preds = %92
  %100 = getelementptr inbounds nuw %"class.icu_77::StringTrieBuilder::ListBranchNode", ptr %10, i32 0, i32 4
  %101 = load i32, ptr %5, align 4, !tbaa !16
  %102 = sext i32 %101 to i64
  %103 = getelementptr inbounds [5 x i32], ptr %100, i64 0, i64 %102
  %104 = load i32, ptr %103, align 4, !tbaa !16
  store i32 %104, ptr %8, align 4, !tbaa !16
  store i8 1, ptr %9, align 1, !tbaa !21
  br label %115

105:                                              ; preds = %92
  %106 = getelementptr inbounds nuw %"class.icu_77::StringTrieBuilder::Node", ptr %10, i32 0, i32 2
  %107 = load i32, ptr %106, align 4, !tbaa !77
  %108 = getelementptr inbounds nuw %"class.icu_77::StringTrieBuilder::ListBranchNode", ptr %10, i32 0, i32 2
  %109 = load i32, ptr %5, align 4, !tbaa !16
  %110 = sext i32 %109 to i64
  %111 = getelementptr inbounds [5 x ptr], ptr %108, i64 0, i64 %110
  %112 = load ptr, ptr %111, align 8, !tbaa !24
  %113 = call noundef i32 @_ZNK6icu_7717StringTrieBuilder4Node9getOffsetEv(ptr noundef nonnull align 8 dereferenceable(16) %112)
  %114 = sub nsw i32 %107, %113
  store i32 %114, ptr %8, align 4, !tbaa !16
  store i8 0, ptr %9, align 1, !tbaa !21
  br label %115

115:                                              ; preds = %105, %99
  %116 = load ptr, ptr %4, align 8, !tbaa !3
  %117 = load i32, ptr %8, align 4, !tbaa !16
  %118 = load i8, ptr %9, align 1, !tbaa !21
  %119 = load ptr, ptr %116, align 8, !tbaa !8
  %120 = getelementptr inbounds ptr, ptr %119, i64 17
  %121 = load ptr, ptr %120, align 8
  %122 = call noundef i32 %121(ptr noundef nonnull align 8 dereferenceable(16) %116, i32 noundef %117, i8 noundef signext %118)
  %123 = load ptr, ptr %4, align 8, !tbaa !3
  %124 = getelementptr inbounds nuw %"class.icu_77::StringTrieBuilder::ListBranchNode", ptr %10, i32 0, i32 5
  %125 = load i32, ptr %5, align 4, !tbaa !16
  %126 = sext i32 %125 to i64
  %127 = getelementptr inbounds [5 x i16], ptr %124, i64 0, i64 %126
  %128 = load i16, ptr %127, align 2, !tbaa !29
  %129 = zext i16 %128 to i32
  %130 = load ptr, ptr %123, align 8, !tbaa !8
  %131 = getelementptr inbounds ptr, ptr %130, i64 15
  %132 = load ptr, ptr %131, align 8
  %133 = call noundef i32 %132(ptr noundef nonnull align 8 dereferenceable(16) %123, i32 noundef %129)
  %134 = getelementptr inbounds nuw %"class.icu_77::StringTrieBuilder::Node", ptr %10, i32 0, i32 2
  store i32 %133, ptr %134, align 4, !tbaa !77
  call void @llvm.lifetime.end.p0(i64 1, ptr %9) #9
  call void @llvm.lifetime.end.p0(i64 4, ptr %8) #9
  br label %88, !llvm.loop !87

135:                                              ; preds = %88
  call void @llvm.lifetime.end.p0(i64 4, ptr %7) #9
  call void @llvm.lifetime.end.p0(i64 8, ptr %6) #9
  call void @llvm.lifetime.end.p0(i64 4, ptr %5) #9
  ret void
}