; Function Attrs: mustprogress uwtable
define void @_ZN6icu_7717StringTrieBuilder14ListBranchNode5writeERS0_(ptr noundef nonnull align 8 captures(none) dereferenceable(98) %0, ptr noundef nonnull align 8 dereferenceable(16) %1) unnamed_addr #2 align 2 {
  %3 = getelementptr inbounds nuw i8, ptr %0, i64 64
  %4 = load i32, ptr %3, align 8, !tbaa !43
  %5 = add nsw i32 %4, -1
  %6 = getelementptr inbounds nuw i8, ptr %0, i64 24
  %7 = sext i32 %5 to i64
  %8 = getelementptr inbounds [5 x ptr], ptr %6, i64 0, i64 %7
  %9 = load ptr, ptr %8, align 8, !tbaa !41
  %10 = icmp eq ptr %9, null
  %11 = getelementptr inbounds nuw i8, ptr %0, i64 16
  %12 = getelementptr inbounds nuw i8, ptr %9, i64 12
  %.in = select i1 %10, ptr %11, ptr %12
  %13 = load i32, ptr %.in, align 4, !tbaa !33
  %14 = sext i32 %4 to i64
  %15 = add nsw i64 %14, -1
  br label %16

16:                                               ; preds = %_ZN6icu_7717StringTrieBuilder4Node26writeUnlessInsideRightEdgeEiiRS0_.exit, %2
  %indvars.iv = phi i64 [ %indvars.iv.next, %_ZN6icu_7717StringTrieBuilder4Node26writeUnlessInsideRightEdgeEiiRS0_.exit ], [ %15, %2 ]
  %indvars.iv.next = add nsw i64 %indvars.iv, -1
  %17 = getelementptr inbounds [5 x ptr], ptr %6, i64 0, i64 %indvars.iv.next
  %18 = load ptr, ptr %17, align 8, !tbaa !41
  %.not = icmp eq ptr %18, null
  br i1 %.not, label %_ZN6icu_7717StringTrieBuilder4Node26writeUnlessInsideRightEdgeEiiRS0_.exit, label %19

19:                                               ; preds = %16
  %20 = getelementptr inbounds nuw i8, ptr %18, i64 12
  %21 = load i32, ptr %20, align 4, !tbaa !21
  %22 = icmp slt i32 %21, 0
  br i1 %22, label %23, label %_ZN6icu_7717StringTrieBuilder4Node26writeUnlessInsideRightEdgeEiiRS0_.exit

23:                                               ; preds = %19
  %24 = load i32, ptr %11, align 8, !tbaa !59
  %25 = icmp slt i32 %21, %13
  %26 = icmp slt i32 %24, %21
  %or.cond.i = or i1 %25, %26
  br i1 %or.cond.i, label %27, label %_ZN6icu_7717StringTrieBuilder4Node26writeUnlessInsideRightEdgeEiiRS0_.exit

27:                                               ; preds = %23
  %28 = load ptr, ptr %18, align 8, !tbaa !3
  %29 = getelementptr inbounds nuw i8, ptr %28, i64 40
  %30 = load ptr, ptr %29, align 8
  tail call void %30(ptr noundef nonnull align 8 dereferenceable(16) %18, ptr noundef nonnull align 8 dereferenceable(16) %1)
  br label %_ZN6icu_7717StringTrieBuilder4Node26writeUnlessInsideRightEdgeEiiRS0_.exit

_ZN6icu_7717StringTrieBuilder4Node26writeUnlessInsideRightEdgeEiiRS0_.exit: ; preds = %27, %23, %19, %16
  %31 = icmp sgt i64 %indvars.iv, 1
  br i1 %31, label %16, label %32, !llvm.loop !61

32:                                               ; preds = %_ZN6icu_7717StringTrieBuilder4Node26writeUnlessInsideRightEdgeEiiRS0_.exit
  %33 = load i32, ptr %3, align 8, !tbaa !43
  %34 = add nsw i32 %33, -1
  br i1 %10, label %35, label %44

35:                                               ; preds = %32
  %36 = getelementptr inbounds nuw i8, ptr %0, i64 68
  %37 = sext i32 %34 to i64
  %38 = getelementptr inbounds [5 x i32], ptr %36, i64 0, i64 %37
  %39 = load i32, ptr %38, align 4, !tbaa !33
  %40 = load ptr, ptr %1, align 8, !tbaa !3
  %41 = getelementptr inbounds nuw i8, ptr %40, i64 136
  %42 = load ptr, ptr %41, align 8
  %43 = tail call noundef i32 %42(ptr noundef nonnull align 8 dereferenceable(16) %1, i32 noundef %39, i8 noundef signext 1)
  br label %48

44:                                               ; preds = %32
  %45 = load ptr, ptr %9, align 8, !tbaa !3
  %46 = getelementptr inbounds nuw i8, ptr %45, i64 40
  %47 = load ptr, ptr %46, align 8
  tail call void %47(ptr noundef nonnull align 8 dereferenceable(16) %9, ptr noundef nonnull align 8 dereferenceable(16) %1)
  %.pre = sext i32 %34 to i64
  br label %48

48:                                               ; preds = %44, %35
  %.pre-phi = phi i64 [ %.pre, %44 ], [ %37, %35 ]
  %49 = getelementptr inbounds nuw i8, ptr %0, i64 88
  %50 = getelementptr inbounds [5 x i16], ptr %49, i64 0, i64 %.pre-phi
  %51 = load i16, ptr %50, align 2, !tbaa !31
  %52 = zext i16 %51 to i32
  %53 = load ptr, ptr %1, align 8, !tbaa !3
  %54 = getelementptr inbounds nuw i8, ptr %53, i64 120
  %55 = load ptr, ptr %54, align 8
  %56 = tail call noundef i32 %55(ptr noundef nonnull align 8 dereferenceable(16) %1, i32 noundef %52)
  %57 = getelementptr inbounds nuw i8, ptr %0, i64 12
  store i32 %56, ptr %57, align 4, !tbaa !21
  %58 = icmp sgt i32 %33, 1
  br i1 %58, label %.lr.ph, label %._crit_edge

.lr.ph:                                           ; preds = %48
  %59 = add nsw i32 %33, -2
  %60 = getelementptr inbounds nuw i8, ptr %0, i64 68
  %61 = zext nneg i32 %59 to i64
  br label %62

62:                                               ; preds = %.lr.ph, %73
  %indvars.iv35 = phi i64 [ %61, %.lr.ph ], [ %indvars.iv.next36, %73 ]
  %storemerge33 = phi i32 [ %56, %.lr.ph ], [ %84, %73 ]
  %63 = getelementptr inbounds nuw [5 x ptr], ptr %6, i64 0, i64 %indvars.iv35
  %64 = load ptr, ptr %63, align 8, !tbaa !41
  %65 = icmp eq ptr %64, null
  br i1 %65, label %66, label %69

66:                                               ; preds = %62
  %67 = getelementptr inbounds nuw [5 x i32], ptr %60, i64 0, i64 %indvars.iv35
  %68 = load i32, ptr %67, align 4, !tbaa !33
  br label %73

69:                                               ; preds = %62
  %70 = getelementptr inbounds nuw i8, ptr %64, i64 12
  %71 = load i32, ptr %70, align 4, !tbaa !21
  %72 = sub nsw i32 %storemerge33, %71
  br label %73

73:                                               ; preds = %69, %66
  %.025 = phi i32 [ %68, %66 ], [ %72, %69 ]
  %.0 = phi i8 [ 1, %66 ], [ 0, %69 ]
  %74 = load ptr, ptr %1, align 8, !tbaa !3
  %75 = getelementptr inbounds nuw i8, ptr %74, i64 136
  %76 = load ptr, ptr %75, align 8
  %77 = tail call noundef i32 %76(ptr noundef nonnull align 8 dereferenceable(16) %1, i32 noundef %.025, i8 noundef signext %.0)
  %78 = getelementptr inbounds nuw [5 x i16], ptr %49, i64 0, i64 %indvars.iv35
  %79 = load i16, ptr %78, align 2, !tbaa !31
  %80 = zext i16 %79 to i32
  %81 = load ptr, ptr %1, align 8, !tbaa !3
  %82 = getelementptr inbounds nuw i8, ptr %81, i64 120
  %83 = load ptr, ptr %82, align 8
  %84 = tail call noundef i32 %83(ptr noundef nonnull align 8 dereferenceable(16) %1, i32 noundef %80)
  store i32 %84, ptr %57, align 4, !tbaa !21
  %indvars.iv.next36 = add nsw i64 %indvars.iv35, -1
  %85 = icmp sgt i64 %indvars.iv35, 0
  br i1 %85, label %62, label %._crit_edge, !llvm.loop !62

._crit_edge:                                      ; preds = %73, %48
  ret void
}